target datalayout = "e-m:e-p270:32:32-p271:32:32-p272:64:64-i64:64-i128:128-f80:128-n8:16:32:64-S128"
target triple = "x86_64-pc-linux-gnu"

%struct.ReplicationSlotCtlData = type { [1 x %struct.ReplicationSlot] }
%struct.ReplicationSlot = type { i8, i8, i32, i8, i8, i32, i32, %struct.ReplicationSlotPersistentData, %struct.LWLock, %struct.ConditionVariable, i32, i64, i64, i64, i64, i64 }
%struct.ReplicationSlotPersistentData = type { %struct.nameData, i32, i32, i32, i32, i64, i32, i64, i64, i8, %struct.nameData, i8, i8 }
%struct.nameData = type { [64 x i8] }
%struct.LWLock = type { i16, %struct.pg_atomic_uint32, %struct.proclist_head }
%struct.pg_atomic_uint32 = type { i32 }
%struct.proclist_head = type { i32, i32 }
%struct.ConditionVariable = type { i8, %struct.proclist_head }
%union.LWLockPadded = type { %struct.LWLock, [112 x i8] }

@ReplicationSlotCtl = dso_local global ptr null, align 8
@max_replication_slots = dso_local global i32 10, align 4
@.str.6 = private unnamed_addr constant [7 x i8] c"slot.c\00", align 1
@MainLWLockArray = external global ptr, align 8
@.str.29 = private unnamed_addr constant [6 x i8] c"%s/%s\00", align 1
@.str.30 = private unnamed_addr constant [12 x i8] c"pg_replslot\00", align 1
@.str.36 = private unnamed_addr constant [39 x i8] c"performing replication slot checkpoint\00", align 1
@__func__.CheckPointReplicationSlots = private unnamed_addr constant [27 x i8] c"CheckPointReplicationSlots\00", align 1

; Function Attrs: inlinehint nounwind uwtable
define internal i32 @tas(ptr noundef %0) #7 {
  %2 = alloca ptr, align 8
  %3 = alloca i8, align 1
  store ptr %0, ptr %2, align 8
  call void @llvm.lifetime.start.p0(i64 1, ptr %3) #12
  store i8 1, ptr %3, align 1
  %4 = load i8, ptr %3, align 1
  %5 = load ptr, ptr %2, align 8
  %6 = call i8 asm sideeffect "\09lock\09\09\09\0A\09xchgb\09$0,$1\09\0A", "=q,=*m,0,*m,~{memory},~{cc},~{dirflag},~{fpsr},~{flags}"(ptr elementtype(i8) %5, i8 %4, ptr elementtype(i8) %5) #12, !srcloc !13
  store i8 %6, ptr %3, align 1
  %7 = load i8, ptr %3, align 1
  %8 = zext i8 %7 to i32
  call void @llvm.lifetime.end.p0(i64 1, ptr %3) #12
  ret i32 %8
}

; Function Attrs: nounwind uwtable
define dso_local void @CheckPointReplicationSlots(i1 noundef zeroext %0) #0 {
  %2 = alloca i8, align 1
  %3 = alloca i32, align 4
  %4 = alloca ptr, align 8
  %5 = alloca [1024 x i8], align 16
  %6 = alloca i32, align 4
  %7 = zext i1 %0 to i8
  store i8 %7, ptr %2, align 1
  call void @llvm.lifetime.start.p0(i64 4, ptr %3) #12
  br label %8

8:                                                ; preds = %1
  br i1 false, label %9, label %11

9:                                                ; preds = %8
  %10 = call zeroext i1 @errstart_cold(i32 noundef 14, ptr noundef null) #14
  br i1 %10, label %13, label %15

11:                                               ; preds = %8
  %12 = call zeroext i1 @errstart(i32 noundef 14, ptr noundef null)
  br i1 %12, label %13, label %15

13:                                               ; preds = %11, %9
  %14 = call i32 (ptr, ...) @errmsg_internal(ptr noundef @.str.36)
  call void @errfinish(ptr noundef @.str.6, i32 noundef 1875, ptr noundef @__func__.CheckPointReplicationSlots)
  br label %15

15:                                               ; preds = %13, %11, %9
  br label %16

16:                                               ; preds = %15
  br label %17

17:                                               ; preds = %16
  %18 = load ptr, ptr @MainLWLockArray, align 8
  %19 = getelementptr inbounds %union.LWLockPadded, ptr %18, i64 36
  %20 = call zeroext i1 @LWLockAcquire(ptr noundef %19, i32 noundef 1)
  store i32 0, ptr %3, align 4
  br label %21

21:                                               ; preds = %94, %17
  %22 = load i32, ptr %3, align 4
  %23 = load i32, ptr @max_replication_slots, align 4
  %24 = icmp slt i32 %22, %23
  br i1 %24, label %25, label %97

25:                                               ; preds = %21
  call void @llvm.lifetime.start.p0(i64 8, ptr %4) #12
  %26 = load ptr, ptr @ReplicationSlotCtl, align 8
  %27 = getelementptr inbounds nuw %struct.ReplicationSlotCtlData, ptr %26, i32 0, i32 0
  %28 = load i32, ptr %3, align 4
  %29 = sext i32 %28 to i64
  %30 = getelementptr inbounds [1 x %struct.ReplicationSlot], ptr %27, i64 0, i64 %29
  store ptr %30, ptr %4, align 8
  call void @llvm.lifetime.start.p0(i64 1024, ptr %5) #12
  %31 = load ptr, ptr %4, align 8
  %32 = getelementptr inbounds nuw %struct.ReplicationSlot, ptr %31, i32 0, i32 1
  %33 = load i8, ptr %32, align 1, !range !4, !noundef !5
  %34 = trunc i8 %33 to i1
  br i1 %34, label %36, label %35

35:                                               ; preds = %25
  store i32 6, ptr %6, align 4
  br label %91

36:                                               ; preds = %25
  %37 = getelementptr inbounds [1024 x i8], ptr %5, i64 0, i64 0
  %38 = load ptr, ptr %4, align 8
  %39 = getelementptr inbounds nuw %struct.ReplicationSlot, ptr %38, i32 0, i32 7
  %40 = getelementptr inbounds nuw %struct.ReplicationSlotPersistentData, ptr %39, i32 0, i32 0
  %41 = getelementptr inbounds nuw %struct.nameData, ptr %40, i32 0, i32 0
  %42 = getelementptr inbounds [64 x i8], ptr %41, i64 0, i64 0
  %43 = call i32 (ptr, ptr, ...) @pg_sprintf(ptr noundef %37, ptr noundef @.str.29, ptr noundef @.str.30, ptr noundef %42)
  %44 = load i8, ptr %2, align 1, !range !4, !noundef !5
  %45 = trunc i8 %44 to i1
  br i1 %45, label %46, label %88

46:                                               ; preds = %36
  %47 = load ptr, ptr %4, align 8
  %48 = getelementptr inbounds nuw %struct.ReplicationSlot, ptr %47, i32 0, i32 7
  %49 = getelementptr inbounds nuw %struct.ReplicationSlotPersistentData, ptr %48, i32 0, i32 1
  %50 = load i32, ptr %49, align 8
  %51 = icmp ne i32 %50, 0
  br i1 %51, label %52, label %88

52:                                               ; preds = %46
  %53 = load ptr, ptr %4, align 8
  %54 = getelementptr inbounds nuw %struct.ReplicationSlot, ptr %53, i32 0, i32 0
  %55 = call i32 @tas(ptr noundef %54)
  %56 = icmp ne i32 %55, 0
  br i1 %56, label %57, label %61

57:                                               ; preds = %52
  %58 = load ptr, ptr %4, align 8
  %59 = getelementptr inbounds nuw %struct.ReplicationSlot, ptr %58, i32 0, i32 0
  %60 = call i32 @s_lock(ptr noundef %59, ptr noundef @.str.6, i32 noundef 1907, ptr noundef @__func__.CheckPointReplicationSlots)
  br label %62

61:                                               ; preds = %52
  br label %62

62:                                               ; preds = %61, %57
  %63 = load ptr, ptr %4, align 8
  %64 = getelementptr inbounds nuw %struct.ReplicationSlot, ptr %63, i32 0, i32 7
  %65 = getelementptr inbounds nuw %struct.ReplicationSlotPersistentData, ptr %64, i32 0, i32 6
  %66 = load i32, ptr %65, align 8
  %67 = icmp eq i32 %66, 0
  br i1 %67, label %68, label %82

68:                                               ; preds = %62
  %69 = load ptr, ptr %4, align 8
  %70 = getelementptr inbounds nuw %struct.ReplicationSlot, ptr %69, i32 0, i32 7
  %71 = getelementptr inbounds nuw %struct.ReplicationSlotPersistentData, ptr %70, i32 0, i32 7
  %72 = load i64, ptr %71, align 8
  %73 = load ptr, ptr %4, align 8
  %74 = getelementptr inbounds nuw %struct.ReplicationSlot, ptr %73, i32 0, i32 14
  %75 = load i64, ptr %74, align 8
  %76 = icmp ugt i64 %72, %75
  br i1 %76, label %77, label %82

77:                                               ; preds = %68
  %78 = load ptr, ptr %4, align 8
  %79 = getelementptr inbounds nuw %struct.ReplicationSlot, ptr %78, i32 0, i32 3
  store i8 1, ptr %79, align 8
  %80 = load ptr, ptr %4, align 8
  %81 = getelementptr inbounds nuw %struct.ReplicationSlot, ptr %80, i32 0, i32 4
  store i8 1, ptr %81, align 1
  br label %82

82:                                               ; preds = %77, %68, %62
  br label %83

83:                                               ; preds = %82
  call void asm sideeffect "", "~{memory},~{dirflag},~{fpsr},~{flags}"() #12, !srcloc !44
  %84 = load ptr, ptr %4, align 8
  %85 = getelementptr inbounds nuw %struct.ReplicationSlot, ptr %84, i32 0, i32 0
  store i8 0, ptr %85, align 8
  br label %86

86:                                               ; preds = %83
  br label %87

87:                                               ; preds = %86
  br label %88

88:                                               ; preds = %87, %46, %36
  %89 = load ptr, ptr %4, align 8
  %90 = getelementptr inbounds [1024 x i8], ptr %5, i64 0, i64 0
  call void @SaveSlotToPath(ptr noundef %89, ptr noundef %90, i32 noundef 15)
  store i32 0, ptr %6, align 4
  br label %91

91:                                               ; preds = %88, %35
  call void @llvm.lifetime.end.p0(i64 1024, ptr %5) #12
  call void @llvm.lifetime.end.p0(i64 8, ptr %4) #12
  %92 = load i32, ptr %6, align 4
  switch i32 %92, label %100 [
    i32 0, label %93
    i32 6, label %94
  ]

93:                                               ; preds = %91
  br label %94

94:                                               ; preds = %93, %91
  %95 = load i32, ptr %3, align 4
  %96 = add i32 %95, 1
  store i32 %96, ptr %3, align 4
  br label %21, !llvm.loop !45

97:                                               ; preds = %21
  %98 = load ptr, ptr @MainLWLockArray, align 8
  %99 = getelementptr inbounds %union.LWLockPadded, ptr %98, i64 36
  call void @LWLockRelease(ptr noundef %99)
  call void @llvm.lifetime.end.p0(i64 4, ptr %3) #12
  ret void

100:                                              ; preds = %91
  unreachable
}