; Function Attrs: nounwind uwtable
define dso_local void @CheckPointReplicationSlots(i1 noundef zeroext %0) local_unnamed_addr #0 {
  %2 = alloca [1024 x i8], align 16
  %3 = tail call zeroext i1 @errstart(i32 noundef 14, ptr noundef null) #17
  br i1 %3, label %4, label %6

4:                                                ; preds = %1
  %5 = tail call i32 (ptr, ...) @errmsg_internal(ptr noundef nonnull @.str.36) #17
  tail call void @errfinish(ptr noundef nonnull @.str.6, i32 noundef 1875, ptr noundef nonnull @__func__.CheckPointReplicationSlots) #17
  br label %6

6:                                                ; preds = %4, %1
  %7 = load ptr, ptr @MainLWLockArray, align 8
  %8 = getelementptr inbounds nuw i8, ptr %7, i64 4608
  %9 = tail call zeroext i1 @LWLockAcquire(ptr noundef nonnull %8, i32 noundef 1) #17
  %10 = load i32, ptr @max_replication_slots, align 4
  %11 = icmp sgt i32 %10, 0
  br i1 %11, label %.lr.ph, label %._crit_edge

.lr.ph:                                           ; preds = %6
  %.pre25 = load ptr, ptr @ReplicationSlotCtl, align 8
  br i1 %0, label %.lr.ph.split.us, label %.lr.ph.split

.lr.ph.split.us:                                  ; preds = %.lr.ph, %42
  %12 = phi i32 [ %43, %42 ], [ %10, %.lr.ph ]
  %13 = phi ptr [ %44, %42 ], [ %.pre25, %.lr.ph ]
  %indvars.iv19 = phi i64 [ %indvars.iv.next20, %42 ], [ 0, %.lr.ph ]
  %14 = getelementptr inbounds nuw [1 x %struct.ReplicationSlot], ptr %13, i64 0, i64 %indvars.iv19
  call void @llvm.lifetime.start.p0(i64 1024, ptr nonnull %2) #17
  %15 = getelementptr inbounds nuw i8, ptr %14, i64 1
  %16 = load i8, ptr %15, align 1, !range !4, !noundef !5
  %17 = trunc nuw i8 %16 to i1
  br i1 %17, label %18, label %42

18:                                               ; preds = %.lr.ph.split.us
  %19 = getelementptr inbounds nuw i8, ptr %14, i64 24
  %20 = call i32 (ptr, ptr, ...) @pg_sprintf(ptr noundef nonnull %2, ptr noundef nonnull @.str.29, ptr noundef nonnull @.str.30, ptr noundef nonnull %19) #17
  %21 = getelementptr inbounds nuw i8, ptr %14, i64 88
  %22 = load i32, ptr %21, align 8
  %.not.us = icmp eq i32 %22, 0
  br i1 %.not.us, label %41, label %23

23:                                               ; preds = %18
  %24 = call i8 asm sideeffect "\09lock\09\09\09\0A\09xchgb\09$0,$1\09\0A", "=q,=*m,0,*m,~{memory},~{cc},~{dirflag},~{fpsr},~{flags}"(ptr nonnull elementtype(i8) %14, i8 1, ptr nonnull elementtype(i8) %14) #17, !srcloc !11
  %.not15.us = icmp eq i8 %24, 0
  br i1 %.not15.us, label %27, label %25

25:                                               ; preds = %23
  %26 = call i32 @s_lock(ptr noundef nonnull %14, ptr noundef nonnull @.str.6, i32 noundef 1907, ptr noundef nonnull @__func__.CheckPointReplicationSlots) #17
  br label %27

27:                                               ; preds = %25, %23
  %28 = getelementptr inbounds nuw i8, ptr %14, i64 112
  %29 = load i32, ptr %28, align 8
  %30 = icmp eq i32 %29, 0
  br i1 %30, label %31, label %40

31:                                               ; preds = %27
  %32 = getelementptr inbounds nuw i8, ptr %14, i64 120
  %33 = load i64, ptr %32, align 8
  %34 = getelementptr inbounds nuw i8, ptr %14, i64 264
  %35 = load i64, ptr %34, align 8
  %36 = icmp ugt i64 %33, %35
  br i1 %36, label %37, label %40

37:                                               ; preds = %31
  %38 = getelementptr inbounds nuw i8, ptr %14, i64 8
  store i8 1, ptr %38, align 8
  %39 = getelementptr inbounds nuw i8, ptr %14, i64 9
  store i8 1, ptr %39, align 1
  br label %40

40:                                               ; preds = %37, %31, %27
  call void asm sideeffect "", "~{memory},~{dirflag},~{fpsr},~{flags}"() #17, !srcloc !43
  store i8 0, ptr %14, align 8
  br label %41

41:                                               ; preds = %40, %18
  call fastcc void @SaveSlotToPath(ptr noundef nonnull %14, ptr noundef %2, i32 noundef 15)
  %.pre24 = load ptr, ptr @ReplicationSlotCtl, align 8
  %.pre26 = load i32, ptr @max_replication_slots, align 4
  br label %42

42:                                               ; preds = %41, %.lr.ph.split.us
  %43 = phi i32 [ %.pre26, %41 ], [ %12, %.lr.ph.split.us ]
  %44 = phi ptr [ %.pre24, %41 ], [ %13, %.lr.ph.split.us ]
  call void @llvm.lifetime.end.p0(i64 1024, ptr nonnull %2) #17
  %indvars.iv.next20 = add nuw nsw i64 %indvars.iv19, 1
  %45 = sext i32 %43 to i64
  %46 = icmp slt i64 %indvars.iv.next20, %45
  br i1 %46, label %.lr.ph.split.us, label %._crit_edge, !llvm.loop !44

.lr.ph.split:                                     ; preds = %.lr.ph, %56
  %47 = phi i32 [ %57, %56 ], [ %10, %.lr.ph ]
  %48 = phi ptr [ %58, %56 ], [ %.pre25, %.lr.ph ]
  %indvars.iv = phi i64 [ %indvars.iv.next, %56 ], [ 0, %.lr.ph ]
  %49 = getelementptr inbounds nuw [1 x %struct.ReplicationSlot], ptr %48, i64 0, i64 %indvars.iv
  call void @llvm.lifetime.start.p0(i64 1024, ptr nonnull %2) #17
  %50 = getelementptr inbounds nuw i8, ptr %49, i64 1
  %51 = load i8, ptr %50, align 1, !range !4, !noundef !5
  %52 = trunc nuw i8 %51 to i1
  br i1 %52, label %53, label %56

53:                                               ; preds = %.lr.ph.split
  %54 = getelementptr inbounds nuw i8, ptr %49, i64 24
  %55 = call i32 (ptr, ptr, ...) @pg_sprintf(ptr noundef nonnull %2, ptr noundef nonnull @.str.29, ptr noundef nonnull @.str.30, ptr noundef nonnull %54) #17
  call fastcc void @SaveSlotToPath(ptr noundef nonnull %49, ptr noundef %2, i32 noundef 15)
  %.pre = load ptr, ptr @ReplicationSlotCtl, align 8
  %.pre23 = load i32, ptr @max_replication_slots, align 4
  br label %56

56:                                               ; preds = %.lr.ph.split, %53
  %57 = phi i32 [ %47, %.lr.ph.split ], [ %.pre23, %53 ]
  %58 = phi ptr [ %48, %.lr.ph.split ], [ %.pre, %53 ]
  call void @llvm.lifetime.end.p0(i64 1024, ptr nonnull %2) #17
  %indvars.iv.next = add nuw nsw i64 %indvars.iv, 1
  %59 = sext i32 %57 to i64
  %60 = icmp slt i64 %indvars.iv.next, %59
  br i1 %60, label %.lr.ph.split, label %._crit_edge, !llvm.loop !44

._crit_edge:                                      ; preds = %56, %42, %6
  %61 = load ptr, ptr @MainLWLockArray, align 8
  %62 = getelementptr inbounds nuw i8, ptr %61, i64 4608
  call void @LWLockRelease(ptr noundef nonnull %62) #17
  ret void
}